; Function Attrs: null_pointer_is_valid sspstrong uwtable
define internal i32 @dissect_p1_AdministrationDomainName(i1 noundef zeroext %0, ptr noundef %1, i32 noundef %2, ptr noundef %3, ptr noundef %4, i32 noundef %5) #0 {
  %7 = getelementptr inbounds nuw i8, ptr %3, i64 16
  %8 = load ptr, ptr %7, align 8
  %9 = getelementptr inbounds nuw i8, ptr %8, i64 408
  %10 = load ptr, ptr %9, align 8
  %11 = load i32, ptr @proto_p1, align 4
  %12 = tail call ptr @p_get_proto_data(ptr noundef %10, ptr noundef %8, i32 noundef %11, i32 noundef 0)
  %.not.i.i = icmp eq ptr %12, null
  br i1 %.not.i.i, label %get_do_address_ctx.exit.i, label %get_do_address_ctx.exit.thread.i

get_do_address_ctx.exit.i:                        ; preds = %6
  %13 = getelementptr inbounds nuw i8, ptr %3, i64 136
  %14 = load ptr, ptr %13, align 8
  %.not.i = icmp eq ptr %14, null
  br i1 %.not.i, label %do_address.exit, label %get_do_address_ctx.exit.thread.i

get_do_address_ctx.exit.thread.i:                 ; preds = %get_do_address_ctx.exit.i, %6
  %.0.i17.i = phi ptr [ %14, %get_do_address_ctx.exit.i ], [ %12, %6 ]
  %15 = load i8, ptr %.0.i17.i, align 8, !range !6, !noundef !7
  %16 = trunc nuw i8 %15 to i1
  br i1 %16, label %17, label %do_address.exit

17:                                               ; preds = %get_do_address_ctx.exit.thread.i
  %18 = getelementptr inbounds nuw i8, ptr %.0.i17.i, i64 24
  %19 = load ptr, ptr %18, align 8
  tail call void @wmem_strbuf_append(ptr noundef %19, ptr noundef nonnull @.str.1633)
  br label %do_address.exit

do_address.exit:                                  ; preds = %get_do_address_ctx.exit.i, %get_do_address_ctx.exit.thread.i, %17
  %20 = tail call i32 @dissect_ber_tagged_type(i1 noundef zeroext %0, ptr noundef %3, ptr noundef %4, ptr noundef %1, i32 noundef %2, i32 noundef %5, i8 noundef signext 1, i32 noundef 2, i1 noundef zeroext true, ptr noundef nonnull @dissect_p1_AdministrationDomainName_U)
  ret i32 %20
}